; Function Attrs: mustprogress uwtable
define dso_local noundef i32 @_ZN5ImGui21TypingSelectFindMatchEP24ImGuiTypingSelectRequestiPFPKcPviES4_i(ptr noundef readonly captures(address_is_null) %0, i32 noundef %1, ptr noundef readonly captures(none) %2, ptr noundef %3, i32 noundef %4) local_unnamed_addr #5 {
  %6 = icmp eq ptr %0, null
  br i1 %6, label %_ZN5ImGui35TypingSelectFindNextSingleCharMatchEP24ImGuiTypingSelectRequestiPFPKcPviES4_i.exit.thread, label %7

7:                                                ; preds = %5
  %8 = getelementptr inbounds nuw i8, ptr %0, i64 16
  %9 = load i8, ptr %8, align 8, !tbaa !573, !range !152, !noundef !153
  %10 = icmp eq i8 %9, 0
  br i1 %10, label %_ZN5ImGui35TypingSelectFindNextSingleCharMatchEP24ImGuiTypingSelectRequestiPFPKcPviES4_i.exit.thread, label %11

11:                                               ; preds = %7
  %12 = getelementptr inbounds nuw i8, ptr %0, i64 17
  %13 = load i8, ptr %12, align 1, !tbaa !574, !range !152, !noundef !153
  %14 = trunc nuw i8 %13 to i1
  br i1 %14, label %15, label %49

15:                                               ; preds = %11
  %16 = load i32, ptr %0, align 8, !tbaa !570
  %17 = and i32 %16, 2
  %.not = icmp eq i32 %17, 0
  br i1 %.not, label %49, label %18

18:                                               ; preds = %15
  %.not40.i = icmp sgt i32 %1, 0
  br i1 %.not40.i, label %.lr.ph.i, label %_ZN5ImGui35TypingSelectFindNextSingleCharMatchEP24ImGuiTypingSelectRequestiPFPKcPviES4_i.exit.thread

.lr.ph.i:                                         ; preds = %18
  %19 = getelementptr inbounds nuw i8, ptr %0, i64 8
  %20 = getelementptr inbounds nuw i8, ptr %0, i64 18
  br label %21

21:                                               ; preds = %47, %.lr.ph.i
  %.02643.i = phi i32 [ 0, %.lr.ph.i ], [ %48, %47 ]
  %.02742.i = phi i1 [ false, %.lr.ph.i ], [ %.128.i, %47 ]
  %.03041.i = phi i32 [ -1, %.lr.ph.i ], [ %.232.i, %47 ]
  %22 = tail call noundef ptr %2(ptr noundef %3, i32 noundef %.02643.i)
  %23 = load ptr, ptr %19, align 8, !tbaa !572
  %24 = load i8, ptr %20, align 2, !tbaa !567
  %25 = sext i8 %24 to i64
  %26 = getelementptr inbounds i8, ptr %23, i64 %25
  %27 = icmp sgt i8 %24, 0
  br i1 %27, label %.lr.ph.i.i, label %_ZL14ImStrimatchlenPKcS0_S0_.exit.i

.lr.ph.i.i:                                       ; preds = %21, %37
  %.010.i.i = phi i32 [ %40, %37 ], [ 0, %21 ]
  %.059.i.i = phi ptr [ %38, %37 ], [ %22, %21 ]
  %.068.i.i = phi ptr [ %39, %37 ], [ %23, %21 ]
  %28 = load i8, ptr %.068.i.i, align 1, !tbaa !338
  %29 = add i8 %28, -97
  %or.cond.i.i.i = icmp ult i8 %29, 26
  %30 = and i8 %28, 95
  %31 = select i1 %or.cond.i.i.i, i8 %30, i8 %28
  %32 = load i8, ptr %.059.i.i, align 1, !tbaa !338
  %33 = add i8 %32, -97
  %or.cond.i7.i.i = icmp ult i8 %33, 26
  %34 = and i8 %32, 95
  %35 = select i1 %or.cond.i7.i.i, i8 %34, i8 %32
  %36 = icmp eq i8 %31, %35
  br i1 %36, label %37, label %_ZL14ImStrimatchlenPKcS0_S0_.exit.i

37:                                               ; preds = %.lr.ph.i.i
  %38 = getelementptr inbounds nuw i8, ptr %.059.i.i, i64 1
  %39 = getelementptr inbounds nuw i8, ptr %.068.i.i, i64 1
  %40 = add nuw nsw i32 %.010.i.i, 1
  %exitcond.not.i.i = icmp eq ptr %39, %26
  br i1 %exitcond.not.i.i, label %_ZL14ImStrimatchlenPKcS0_S0_.exit.thread.i, label %.lr.ph.i.i, !llvm.loop !576

_ZL14ImStrimatchlenPKcS0_S0_.exit.i:              ; preds = %.lr.ph.i.i, %21
  %.0.lcssa.i.i = phi i32 [ 0, %21 ], [ %.010.i.i, %.lr.ph.i.i ]
  %41 = sext i8 %24 to i32
  %42 = icmp slt i32 %.0.lcssa.i.i, %41
  br i1 %42, label %47, label %_ZL14ImStrimatchlenPKcS0_S0_.exit.thread.i

_ZL14ImStrimatchlenPKcS0_S0_.exit.thread.i:       ; preds = %37, %_ZL14ImStrimatchlenPKcS0_S0_.exit.i
  %43 = and i32 %.03041.i, %4
  %or.cond.i = icmp eq i32 %43, -1
  %or.cond39.i = select i1 %.02742.i, i1 true, i1 %or.cond.i
  br i1 %or.cond39.i, label %_ZN5ImGui35TypingSelectFindNextSingleCharMatchEP24ImGuiTypingSelectRequestiPFPKcPviES4_i.exit.thread32, label %44

44:                                               ; preds = %_ZL14ImStrimatchlenPKcS0_S0_.exit.thread.i
  %45 = icmp eq i32 %.03041.i, -1
  %spec.select.i = select i1 %45, i32 %.02643.i, i32 %.03041.i
  %46 = icmp eq i32 %4, %.02643.i
  br label %47

47:                                               ; preds = %44, %_ZL14ImStrimatchlenPKcS0_S0_.exit.i
  %.232.i = phi i32 [ %spec.select.i, %44 ], [ %.03041.i, %_ZL14ImStrimatchlenPKcS0_S0_.exit.i ]
  %.128.i = phi i1 [ %46, %44 ], [ %.02742.i, %_ZL14ImStrimatchlenPKcS0_S0_.exit.i ]
  %48 = add nuw nsw i32 %.02643.i, 1
  %exitcond.not.i = icmp eq i32 %48, %1
  br i1 %exitcond.not.i, label %_ZN5ImGui35TypingSelectFindNextSingleCharMatchEP24ImGuiTypingSelectRequestiPFPKcPviES4_i.exit, label %21, !llvm.loop !577

49:                                               ; preds = %15, %11
  %50 = icmp sgt i32 %1, 0
  br i1 %50, label %.lr.ph.i18, label %_ZN5ImGui35TypingSelectFindNextSingleCharMatchEP24ImGuiTypingSelectRequestiPFPKcPviES4_i.exit.thread

.lr.ph.i18:                                       ; preds = %49
  %51 = getelementptr inbounds nuw i8, ptr %0, i64 8
  %52 = getelementptr inbounds nuw i8, ptr %0, i64 4
  br label %53

53:                                               ; preds = %75, %.lr.ph.i18
  %.029.i = phi i32 [ -1, %.lr.ph.i18 ], [ %.2.ph.i, %75 ]
  %.01728.i = phi i32 [ 0, %.lr.ph.i18 ], [ %.118.ph.i, %75 ]
  %.02027.i = phi i32 [ 0, %.lr.ph.i18 ], [ %76, %75 ]
  %54 = tail call noundef ptr %2(ptr noundef %3, i32 noundef %.02027.i)
  %55 = load ptr, ptr %51, align 8, !tbaa !572
  %56 = load i32, ptr %52, align 4, !tbaa !571
  %57 = sext i32 %56 to i64
  %58 = getelementptr inbounds i8, ptr %55, i64 %57
  %59 = icmp sgt i32 %56, 0
  br i1 %59, label %.lr.ph.i.i22, label %_ZL14ImStrimatchlenPKcS0_S0_.exit.i19

.lr.ph.i.i22:                                     ; preds = %53, %69
  %.010.i.i23 = phi i32 [ %72, %69 ], [ 0, %53 ]
  %.059.i.i24 = phi ptr [ %70, %69 ], [ %54, %53 ]
  %.068.i.i25 = phi ptr [ %71, %69 ], [ %55, %53 ]
  %60 = load i8, ptr %.068.i.i25, align 1, !tbaa !338
  %61 = add i8 %60, -97
  %or.cond.i.i.i26 = icmp ult i8 %61, 26
  %62 = and i8 %60, 95
  %63 = select i1 %or.cond.i.i.i26, i8 %62, i8 %60
  %64 = load i8, ptr %.059.i.i24, align 1, !tbaa !338
  %65 = add i8 %64, -97
  %or.cond.i7.i.i27 = icmp ult i8 %65, 26
  %66 = and i8 %64, 95
  %67 = select i1 %or.cond.i7.i.i27, i8 %66, i8 %64
  %68 = icmp eq i8 %63, %67
  br i1 %68, label %69, label %_ZL14ImStrimatchlenPKcS0_S0_.exit.i19

69:                                               ; preds = %.lr.ph.i.i22
  %70 = getelementptr inbounds nuw i8, ptr %.059.i.i24, i64 1
  %71 = getelementptr inbounds nuw i8, ptr %.068.i.i25, i64 1
  %72 = add nuw nsw i32 %.010.i.i23, 1
  %exitcond.not.i.i28 = icmp eq ptr %71, %58
  br i1 %exitcond.not.i.i28, label %_ZL14ImStrimatchlenPKcS0_S0_.exit.i19, label %.lr.ph.i.i22, !llvm.loop !576

_ZL14ImStrimatchlenPKcS0_S0_.exit.i19:            ; preds = %69, %.lr.ph.i.i22, %53
  %.0.lcssa.i.i20 = phi i32 [ 0, %53 ], [ %56, %69 ], [ %.010.i.i23, %.lr.ph.i.i22 ]
  %.not.i = icmp sgt i32 %.0.lcssa.i.i20, %.01728.i
  br i1 %.not.i, label %73, label %75

73:                                               ; preds = %_ZL14ImStrimatchlenPKcS0_S0_.exit.i19
  %74 = icmp eq i32 %.0.lcssa.i.i20, %56
  br i1 %74, label %_ZN5ImGui35TypingSelectFindNextSingleCharMatchEP24ImGuiTypingSelectRequestiPFPKcPviES4_i.exit.thread32, label %75

75:                                               ; preds = %73, %_ZL14ImStrimatchlenPKcS0_S0_.exit.i19
  %.118.ph.i = phi i32 [ %.0.lcssa.i.i20, %73 ], [ %.01728.i, %_ZL14ImStrimatchlenPKcS0_S0_.exit.i19 ]
  %.2.ph.i = phi i32 [ %.02027.i, %73 ], [ %.029.i, %_ZL14ImStrimatchlenPKcS0_S0_.exit.i19 ]
  %76 = add nuw nsw i32 %.02027.i, 1
  %exitcond.not.i21 = icmp eq i32 %76, %1
  br i1 %exitcond.not.i21, label %_ZN5ImGui35TypingSelectFindNextSingleCharMatchEP24ImGuiTypingSelectRequestiPFPKcPviES4_i.exit, label %53, !llvm.loop !578

_ZN5ImGui35TypingSelectFindNextSingleCharMatchEP24ImGuiTypingSelectRequestiPFPKcPviES4_i.exit: ; preds = %47, %75
  %.0 = phi i32 [ %.2.ph.i, %75 ], [ %.232.i, %47 ]
  %.not17 = icmp eq i32 %.0, -1
  br i1 %.not17, label %_ZN5ImGui35TypingSelectFindNextSingleCharMatchEP24ImGuiTypingSelectRequestiPFPKcPviES4_i.exit.thread, label %_ZN5ImGui35TypingSelectFindNextSingleCharMatchEP24ImGuiTypingSelectRequestiPFPKcPviES4_i.exit.thread32

_ZN5ImGui35TypingSelectFindNextSingleCharMatchEP24ImGuiTypingSelectRequestiPFPKcPviES4_i.exit.thread32: ; preds = %_ZL14ImStrimatchlenPKcS0_S0_.exit.thread.i, %73, %_ZN5ImGui35TypingSelectFindNextSingleCharMatchEP24ImGuiTypingSelectRequestiPFPKcPviES4_i.exit
  %.035 = phi i32 [ %.0, %_ZN5ImGui35TypingSelectFindNextSingleCharMatchEP24ImGuiTypingSelectRequestiPFPKcPviES4_i.exit ], [ %.02027.i, %73 ], [ %.02643.i, %_ZL14ImStrimatchlenPKcS0_S0_.exit.thread.i ]
  tail call void @_ZN5ImGui28NavRestoreHighlightAfterMoveEv()
  br label %_ZN5ImGui35TypingSelectFindNextSingleCharMatchEP24ImGuiTypingSelectRequestiPFPKcPviES4_i.exit.thread

_ZN5ImGui35TypingSelectFindNextSingleCharMatchEP24ImGuiTypingSelectRequestiPFPKcPviES4_i.exit.thread: ; preds = %49, %18, %_ZN5ImGui35TypingSelectFindNextSingleCharMatchEP24ImGuiTypingSelectRequestiPFPKcPviES4_i.exit, %_ZN5ImGui35TypingSelectFindNextSingleCharMatchEP24ImGuiTypingSelectRequestiPFPKcPviES4_i.exit.thread32, %5, %7
  %.015 = phi i32 [ -1, %7 ], [ -1, %5 ], [ %.035, %_ZN5ImGui35TypingSelectFindNextSingleCharMatchEP24ImGuiTypingSelectRequestiPFPKcPviES4_i.exit.thread32 ], [ -1, %_ZN5ImGui35TypingSelectFindNextSingleCharMatchEP24ImGuiTypingSelectRequestiPFPKcPviES4_i.exit ], [ -1, %18 ], [ -1, %49 ]
  ret i32 %.015
}